; ModuleID = '15/2070.c'
source_filename = "15/2070.c"
target datalayout = "e-m:e-p270:32:32-p271:32:32-p272:64:64-i64:64-f80:128-n8:16:32:64-S128"
target triple = "x86_64-pc-linux-gnu"

@.str = private unnamed_addr constant [3 x i8] c"%d\00", align 1

; Function Attrs: noinline nounwind uwtable
define dso_local void @main() #0 {
  %1 = alloca i32, align 4
  %2 = alloca i32, align 4
  %3 = alloca i32, align 4
  %4 = alloca i32, align 4
  %5 = alloca i32, align 4
  %6 = alloca i32, align 4
  %7 = alloca i32, align 4
  store i32 0, i32* %3, align 4
  store i32 0, i32* %5, align 4
  store i32 0, i32* %6, align 4
  %8 = call i32 (i8*, ...) @__isoc99_scanf(i8* getelementptr inbounds ([3 x i8], [3 x i8]* @.str, i64 0, i64 0), i32* %1)
  store i32 1, i32* %7, align 4
  br label %9

9:                                                ; preds = %46, %0
  %10 = load i32, i32* %7, align 4
  %11 = load i32, i32* %1, align 4
  %12 = load i32, i32* %1, align 4
  %13 = mul nsw i32 %11, %12
  %14 = icmp sle i32 %10, %13
  br i1 %14, label %15, label %49

15:                                               ; preds = %9
  %16 = call i32 (i8*, ...) @__isoc99_scanf(i8* getelementptr inbounds ([3 x i8], [3 x i8]* @.str, i64 0, i64 0), i32* %2)
  %17 = load i32, i32* %2, align 4
  %18 = icmp eq i32 %17, 0
  br i1 %18, label %19, label %40

19:                                               ; preds = %15
  %20 = load i32, i32* %5, align 4
  %21 = icmp eq i32 %20, 0
  br i1 %21, label %22, label %27

22:                                               ; preds = %19
  store i32 1, i32* %6, align 4
  %23 = load i32, i32* %3, align 4
  %24 = add nsw i32 %23, 1
  store i32 %24, i32* %3, align 4
  %25 = load i32, i32* %5, align 4
  %26 = add nsw i32 %25, 1
  store i32 %26, i32* %5, align 4
  br label %39

27:                                               ; preds = %19
  %28 = load i32, i32* %6, align 4
  %29 = icmp eq i32 %28, 1
  br i1 %29, label %30, label %35

30:                                               ; preds = %27
  %31 = load i32, i32* %5, align 4
  %32 = add nsw i32 %31, 1
  store i32 %32, i32* %5, align 4
  %33 = load i32, i32* %3, align 4
  %34 = add nsw i32 %33, 1
  store i32 %34, i32* %3, align 4
  br label %38

35:                                               ; preds = %27
  %36 = load i32, i32* %5, align 4
  %37 = add nsw i32 %36, 1
  store i32 %37, i32* %5, align 4
  br label %38

38:                                               ; preds = %35, %30
  br label %39

39:                                               ; preds = %38, %22
  br label %45

40:                                               ; preds = %15
  %41 = load i32, i32* %6, align 4
  %42 = icmp eq i32 %41, 1
  br i1 %42, label %43, label %44

43:                                               ; preds = %40
  store i32 0, i32* %6, align 4
  br label %44

44:                                               ; preds = %43, %40
  br label %45

45:                                               ; preds = %44, %39
  br label %46

46:                                               ; preds = %45
  %47 = load i32, i32* %7, align 4
  %48 = add nsw i32 %47, 1
  store i32 %48, i32* %7, align 4
  br label %9

49:                                               ; preds = %9
  %50 = load i32, i32* %5, align 4
  %51 = sdiv i32 %50, 2
  %52 = load i32, i32* %3, align 4
  %53 = sub nsw i32 %51, %52
  store i32 %53, i32* %4, align 4
  %54 = load i32, i32* %3, align 4
  %55 = sub nsw i32 %54, 2
  store i32 %55, i32* %3, align 4
  %56 = load i32, i32* %3, align 4
  %57 = load i32, i32* %4, align 4
  %58 = mul nsw i32 %56, %57
  %59 = call i32 (i8*, ...) @printf(i8* getelementptr inbounds ([3 x i8], [3 x i8]* @.str, i64 0, i64 0), i32 %58)
  ret void
}

declare dso_local i32 @__isoc99_scanf(i8*, ...) #1

declare dso_local i32 @printf(i8*, ...) #1


!llvm.module.flags = !{!0}
!llvm.ident = !{!1}

!0 = !{i32 1, !"wchar_size", i32 4}
!1 = !{!"clang version 10.0.0-4ubuntu1 "}
